target datalayout = "e-m:e-p270:32:32-p271:32:32-p272:64:64-i64:64-i128:128-f80:128-n8:16:32:64-S128"
target triple = "x86_64-pc-linux-gnu"

%struct.SDL_VideoDevice = type { ptr, ptr, ptr, ptr, ptr, ptr, ptr, ptr, ptr, ptr, ptr, ptr, ptr, ptr, ptr, ptr, ptr, ptr, ptr, ptr, ptr, ptr, ptr, ptr, ptr, ptr, ptr, ptr, ptr, ptr, ptr, ptr, ptr, ptr, ptr, ptr, ptr, ptr, ptr, ptr, ptr, ptr, ptr, ptr, ptr, ptr, ptr, ptr, ptr, ptr, ptr, ptr, ptr, ptr, ptr, ptr, ptr, ptr, ptr, ptr, ptr, ptr, ptr, ptr, ptr, ptr, ptr, ptr, ptr, ptr, ptr, ptr, ptr, ptr, ptr, ptr, ptr, ptr, ptr, ptr, ptr, ptr, ptr, ptr, ptr, ptr, ptr, ptr, ptr, ptr, ptr, ptr, ptr, ptr, ptr, ptr, ptr, i64, i8, i8, i8, ptr, i32, ptr, %struct.SDL_Rect, ptr, ptr, i32, ptr, ptr, ptr, ptr, i64, ptr, i8, i32, i32, %struct.anon, ptr, ptr, ptr, ptr, ptr, ptr, %struct.SDL_AtomicInt, %struct.SDL_AtomicInt, i8, %struct.anon.0, ptr, ptr, ptr, ptr, ptr }
%struct.SDL_Rect = type { i32, i32, i32, i32 }
%struct.anon = type { i32, i32, i32, i32, i32, i32, i32, i32, i32, i32, i32, i32, i32, i32, i32, i32, i32, i32, i32, i32, i32, i32, i32, i32, i32, i32, i32, i32, i32, [256 x i8], ptr }
%struct.SDL_AtomicInt = type { i32 }
%struct.anon.0 = type { ptr, ptr, i32, [256 x i8], ptr }
%struct.SDL_EGL_VideoData = type { ptr, ptr, ptr, ptr, i32, i32, i32, i32, i32, i8, i32, ptr, ptr, ptr, ptr, ptr, ptr, ptr, ptr, ptr, ptr, ptr, ptr, ptr, ptr, ptr, ptr, ptr, ptr, ptr, ptr, ptr, ptr, ptr, ptr, ptr, ptr, ptr }

; Function Attrs: nounwind uwtable
define hidden zeroext i1 @SDL_EGL_HasExtension(ptr noundef %0, i32 noundef %1, ptr noundef %2) #0 {
  %4 = alloca i1, align 1
  %5 = alloca ptr, align 8
  %6 = alloca i32, align 4
  %7 = alloca ptr, align 8
  %8 = alloca i64, align 8
  %9 = alloca ptr, align 8
  %10 = alloca ptr, align 8
  %11 = alloca ptr, align 8
  %12 = alloca i32, align 4
  %13 = alloca i32, align 4
  store ptr %0, ptr %5, align 8
  store i32 %1, ptr %6, align 4
  store ptr %2, ptr %7, align 8
  call void @llvm.lifetime.start.p0(i64 8, ptr %8) #5
  call void @llvm.lifetime.start.p0(i64 8, ptr %9) #5
  call void @llvm.lifetime.start.p0(i64 8, ptr %10) #5
  call void @llvm.lifetime.start.p0(i64 8, ptr %11) #5
  %14 = load ptr, ptr %7, align 8
  %15 = icmp ne ptr %14, null
  br i1 %15, label %16, label %25

16:                                               ; preds = %3
  %17 = load ptr, ptr %7, align 8
  %18 = load i8, ptr %17, align 1
  %19 = sext i8 %18 to i32
  %20 = icmp eq i32 %19, 0
  br i1 %20, label %25, label %21

21:                                               ; preds = %16
  %22 = load ptr, ptr %7, align 8
  %23 = call ptr @SDL_strchr_REAL(ptr noundef %22, i32 noundef 32)
  %24 = icmp ne ptr %23, null
  br i1 %24, label %25, label %26

25:                                               ; preds = %21, %16, %3
  store i1 false, ptr %4, align 1
  store i32 1, ptr %12, align 4
  br label %142

26:                                               ; preds = %21
  %27 = load ptr, ptr %7, align 8
  %28 = call ptr @SDL_GetHint_REAL(ptr noundef %27)
  store ptr %28, ptr %9, align 8
  %29 = load ptr, ptr %9, align 8
  %30 = icmp ne ptr %29, null
  br i1 %30, label %31, label %54

31:                                               ; preds = %26
  call void @llvm.lifetime.start.p0(i64 4, ptr %13) #5
  %32 = load ptr, ptr %9, align 8
  %33 = call i32 @SDL_atoi_REAL(ptr noundef %32)
  store i32 %33, ptr %13, align 4
  %34 = load i32, ptr %13, align 4
  %35 = and i32 %34, 1
  %36 = icmp ne i32 %35, 0
  br i1 %36, label %37, label %41

37:                                               ; preds = %31
  %38 = load i32, ptr %6, align 4
  %39 = icmp eq i32 %38, 0
  br i1 %39, label %40, label %41

40:                                               ; preds = %37
  store i1 false, ptr %4, align 1
  store i32 1, ptr %12, align 4
  br label %51

41:                                               ; preds = %37, %31
  %42 = load i32, ptr %13, align 4
  %43 = and i32 %42, 2
  %44 = icmp ne i32 %43, 0
  br i1 %44, label %45, label %49

45:                                               ; preds = %41
  %46 = load i32, ptr %6, align 4
  %47 = icmp eq i32 %46, 1
  br i1 %47, label %48, label %49

48:                                               ; preds = %45
  store i1 false, ptr %4, align 1
  store i32 1, ptr %12, align 4
  br label %51

49:                                               ; preds = %45, %41
  br label %50

50:                                               ; preds = %49
  store i32 0, ptr %12, align 4
  br label %51

51:                                               ; preds = %50, %48, %40
  call void @llvm.lifetime.end.p0(i64 4, ptr %13) #5
  %52 = load i32, ptr %12, align 4
  switch i32 %52, label %142 [
    i32 0, label %53
  ]

53:                                               ; preds = %51
  br label %54

54:                                               ; preds = %53, %26
  %55 = load ptr, ptr %7, align 8
  %56 = call i64 @SDL_strlen_REAL(ptr noundef %55)
  store i64 %56, ptr %8, align 8
  %57 = load i32, ptr %6, align 4
  switch i32 %57, label %77 [
    i32 0, label %58
    i32 1, label %70
  ]

58:                                               ; preds = %54
  %59 = load ptr, ptr %5, align 8
  %60 = getelementptr inbounds nuw %struct.SDL_VideoDevice, ptr %59, i32 0, i32 130
  %61 = load ptr, ptr %60, align 8
  %62 = getelementptr inbounds nuw %struct.SDL_EGL_VideoData, ptr %61, i32 0, i32 24
  %63 = load ptr, ptr %62, align 8
  %64 = load ptr, ptr %5, align 8
  %65 = getelementptr inbounds nuw %struct.SDL_VideoDevice, ptr %64, i32 0, i32 130
  %66 = load ptr, ptr %65, align 8
  %67 = getelementptr inbounds nuw %struct.SDL_EGL_VideoData, ptr %66, i32 0, i32 2
  %68 = load ptr, ptr %67, align 8
  %69 = call ptr %63(ptr noundef %68, i32 noundef 12373)
  store ptr %69, ptr %10, align 8
  br label %78

70:                                               ; preds = %54
  %71 = load ptr, ptr %5, align 8
  %72 = getelementptr inbounds nuw %struct.SDL_VideoDevice, ptr %71, i32 0, i32 130
  %73 = load ptr, ptr %72, align 8
  %74 = getelementptr inbounds nuw %struct.SDL_EGL_VideoData, ptr %73, i32 0, i32 24
  %75 = load ptr, ptr %74, align 8
  %76 = call ptr %75(ptr noundef null, i32 noundef 12373)
  store ptr %76, ptr %10, align 8
  br label %78

77:                                               ; preds = %54
  store i1 false, ptr %4, align 1
  store i32 1, ptr %12, align 4
  br label %142

78:                                               ; preds = %70, %58
  %79 = load ptr, ptr %10, align 8
  %80 = icmp ne ptr %79, null
  br i1 %80, label %81, label %141

81:                                               ; preds = %78
  %82 = load ptr, ptr %10, align 8
  store ptr %82, ptr %11, align 8
  br label %83

83:                                               ; preds = %139, %81
  %84 = load ptr, ptr %11, align 8
  %85 = load i8, ptr %84, align 1
  %86 = icmp ne i8 %85, 0
  br i1 %86, label %87, label %140

87:                                               ; preds = %83
  %88 = load ptr, ptr %11, align 8
  %89 = load ptr, ptr %7, align 8
  %90 = call ptr @SDL_strstr_REAL(ptr noundef %88, ptr noundef %89)
  store ptr %90, ptr %11, align 8
  %91 = load ptr, ptr %11, align 8
  %92 = icmp ne ptr %91, null
  br i1 %92, label %94, label %93

93:                                               ; preds = %87
  store i1 false, ptr %4, align 1
  store i32 1, ptr %12, align 4
  br label %142

94:                                               ; preds = %87
  %95 = load ptr, ptr %11, align 8
  %96 = load ptr, ptr %10, align 8
  %97 = icmp eq ptr %95, %96
  br i1 %97, label %104, label %98

98:                                               ; preds = %94
  %99 = load ptr, ptr %11, align 8
  %100 = getelementptr inbounds i8, ptr %99, i64 -1
  %101 = load i8, ptr %100, align 1
  %102 = sext i8 %101 to i32
  %103 = icmp eq i32 %102, 32
  br i1 %103, label %104, label %120

104:                                              ; preds = %98, %94
  %105 = load ptr, ptr %11, align 8
  %106 = load i64, ptr %8, align 8
  %107 = getelementptr inbounds nuw i8, ptr %105, i64 %106
  %108 = load i8, ptr %107, align 1
  %109 = sext i8 %108 to i32
  %110 = icmp eq i32 %109, 32
  br i1 %110, label %118, label %111

111:                                              ; preds = %104
  %112 = load ptr, ptr %11, align 8
  %113 = load i64, ptr %8, align 8
  %114 = getelementptr inbounds nuw i8, ptr %112, i64 %113
  %115 = load i8, ptr %114, align 1
  %116 = sext i8 %115 to i32
  %117 = icmp eq i32 %116, 0
  br i1 %117, label %118, label %119

118:                                              ; preds = %111, %104
  store i1 true, ptr %4, align 1
  store i32 1, ptr %12, align 4
  br label %142

119:                                              ; preds = %111
  br label %120

120:                                              ; preds = %119, %98
  %121 = load i64, ptr %8, align 8
  %122 = load ptr, ptr %11, align 8
  %123 = getelementptr inbounds nuw i8, ptr %122, i64 %121
  store ptr %123, ptr %11, align 8
  br label %124

124:                                              ; preds = %136, %120
  %125 = load ptr, ptr %11, align 8
  %126 = load i8, ptr %125, align 1
  %127 = sext i8 %126 to i32
  %128 = icmp ne i32 %127, 32
  br i1 %128, label %129, label %134

129:                                              ; preds = %124
  %130 = load ptr, ptr %11, align 8
  %131 = load i8, ptr %130, align 1
  %132 = sext i8 %131 to i32
  %133 = icmp ne i32 %132, 0
  br label %134

134:                                              ; preds = %129, %124
  %135 = phi i1 [ false, %124 ], [ %133, %129 ]
  br i1 %135, label %136, label %139

136:                                              ; preds = %134
  %137 = load ptr, ptr %11, align 8
  %138 = getelementptr inbounds nuw i8, ptr %137, i32 1
  store ptr %138, ptr %11, align 8
  br label %124, !llvm.loop !3

139:                                              ; preds = %134
  br label %83, !llvm.loop !5

140:                                              ; preds = %83
  br label %141

141:                                              ; preds = %140, %78
  store i1 false, ptr %4, align 1
  store i32 1, ptr %12, align 4
  br label %142

142:                                              ; preds = %141, %118, %93, %77, %51, %25
  call void @llvm.lifetime.end.p0(i64 8, ptr %11) #5
  call void @llvm.lifetime.end.p0(i64 8, ptr %10) #5
  call void @llvm.lifetime.end.p0(i64 8, ptr %9) #5
  call void @llvm.lifetime.end.p0(i64 8, ptr %8) #5
  %143 = load i1, ptr %4, align 1
  ret i1 %143
}