; Function Attrs: nounwind uwtable
define hidden noundef zeroext i1 @SDL_EGL_HasExtension(ptr noundef readonly captures(none) %0, i32 noundef %1, ptr noundef %2) local_unnamed_addr #0 {
  %.not = icmp eq ptr %2, null
  br i1 %.not, label %.critedge54, label %4

4:                                                ; preds = %3
  %5 = load i8, ptr %2, align 1
  %6 = icmp eq i8 %5, 0
  br i1 %6, label %.critedge54, label %7

7:                                                ; preds = %4
  %8 = tail call ptr @SDL_strchr_REAL(ptr noundef nonnull %2, i32 noundef 32) #7
  %.not46 = icmp eq ptr %8, null
  br i1 %.not46, label %9, label %.critedge54

9:                                                ; preds = %7
  %10 = tail call ptr @SDL_GetHint_REAL(ptr noundef nonnull %2) #7
  %.not47 = icmp eq ptr %10, null
  br i1 %.not47, label %20, label %11

11:                                               ; preds = %9
  %12 = tail call i32 @SDL_atoi_REAL(ptr noundef nonnull %10) #7
  %13 = and i32 %12, 1
  %14 = icmp ne i32 %13, 0
  %15 = icmp eq i32 %1, 0
  %or.cond = and i1 %15, %14
  br i1 %or.cond, label %.critedge54, label %16

16:                                               ; preds = %11
  %17 = and i32 %12, 2
  %18 = icmp eq i32 %17, 0
  %19 = icmp ne i32 %1, 1
  %or.cond3.not = or i1 %19, %18
  br i1 %or.cond3.not, label %20, label %.critedge54

20:                                               ; preds = %16, %9
  %21 = tail call i64 @SDL_strlen_REAL(ptr noundef nonnull %2) #7
  switch i32 %1, label %.critedge54 [
    i32 0, label %22
    i32 1, label %30
  ]

22:                                               ; preds = %20
  %23 = getelementptr inbounds nuw i8, ptr %0, i64 1672
  %24 = load ptr, ptr %23, align 8
  %25 = getelementptr inbounds nuw i8, ptr %24, i64 168
  %26 = load ptr, ptr %25, align 8
  %27 = getelementptr inbounds nuw i8, ptr %24, i64 16
  %28 = load ptr, ptr %27, align 8
  %29 = tail call ptr %26(ptr noundef %28, i32 noundef 12373) #7
  br label %36

30:                                               ; preds = %20
  %31 = getelementptr inbounds nuw i8, ptr %0, i64 1672
  %32 = load ptr, ptr %31, align 8
  %33 = getelementptr inbounds nuw i8, ptr %32, i64 168
  %34 = load ptr, ptr %33, align 8
  %35 = tail call ptr %34(ptr noundef null, i32 noundef 12373) #7
  br label %36

36:                                               ; preds = %30, %22
  %.040 = phi ptr [ %35, %30 ], [ %29, %22 ]
  %.not48 = icmp eq ptr %.040, null
  br i1 %.not48, label %.critedge54, label %.preheader

.preheader:                                       ; preds = %36
  %37 = load i8, ptr %.040, align 1
  %.not4957 = icmp eq i8 %37, 0
  br i1 %.not4957, label %.critedge54, label %.lr.ph

.lr.ph:                                           ; preds = %50, %.preheader
  %.03858 = phi ptr [ %.040, %.preheader ], [ %.139, %50 ]
  %38 = tail call ptr @SDL_strstr_REAL(ptr noundef nonnull %.03858, ptr noundef nonnull %2) #7
  %.not50 = icmp ne ptr %38, null
  br i1 %.not50, label %39, label %.critedge54

39:                                               ; preds = %.lr.ph
  %40 = icmp eq ptr %38, %.040
  br i1 %40, label %45, label %41

41:                                               ; preds = %39
  %42 = getelementptr inbounds i8, ptr %38, i64 -1
  %43 = load i8, ptr %42, align 1
  %44 = icmp eq i8 %43, 32
  br i1 %44, label %45, label %48

45:                                               ; preds = %41, %39
  %46 = getelementptr inbounds nuw i8, ptr %38, i64 %21
  %47 = load i8, ptr %46, align 1
  switch i8 %47, label %48 [
    i8 32, label %.critedge54
    i8 0, label %.critedge54
  ]

48:                                               ; preds = %45, %41
  %49 = getelementptr inbounds nuw i8, ptr %38, i64 %21
  br label %50

50:                                               ; preds = %52, %48
  %.139 = phi ptr [ %49, %48 ], [ %53, %52 ]
  %51 = load i8, ptr %.139, align 1
  switch i8 %51, label %52 [
    i8 0, label %.critedge54
    i8 32, label %.lr.ph
  ]

52:                                               ; preds = %50
  %53 = getelementptr inbounds nuw i8, ptr %.139, i64 1
  br label %50, !llvm.loop !3

.critedge54:                                      ; preds = %.lr.ph, %45, %45, %50, %.preheader, %11, %36, %20, %3, %4, %7, %16
  %.0 = phi i1 [ false, %16 ], [ false, %7 ], [ false, %4 ], [ false, %3 ], [ false, %20 ], [ false, %36 ], [ false, %11 ], [ false, %.preheader ], [ false, %50 ], [ %.not50, %45 ], [ %.not50, %45 ], [ %.not50, %.lr.ph ]
  ret i1 %.0
}